; Function Attrs: nounwind uwtable
define noalias nonnull ptr @l_Array_mapFinIdxM_map___at_Lean_Elab_WF_preDefsFromUnaryNonRec___spec__1___lambda__2(ptr noundef %0, i8 noundef zeroext %1, ptr noundef %2, ptr noundef %3, ptr noundef %4, ptr noundef %5, ptr noundef %6, ptr noundef %7, ptr noundef readnone captures(none) %8, ptr noundef readnone captures(none) %9, ptr noundef readnone captures(none) %10, ptr noundef readnone captures(none) %11, ptr noundef readnone captures(none) %12, ptr noundef %13) local_unnamed_addr #0 {
  tail call void @lean_inc_heartbeat() #5
  %15 = tail call noalias ptr @mi_malloc_small(i64 noundef 72) #5
  %16 = icmp eq ptr %15, null
  br i1 %16, label %17, label %lean_alloc_ctor.exit

17:                                               ; preds = %14
  tail call void @lean_internal_panic_out_of_memory() #6
  unreachable

lean_alloc_ctor.exit:                             ; preds = %14
  %18 = getelementptr inbounds nuw i8, ptr %15, i64 4
  %19 = getelementptr inbounds nuw i8, ptr %15, i64 64
  store i64 0, ptr %19, align 8, !tbaa !12
  store i32 1, ptr %15, align 4, !tbaa !4
  store i32 458824, ptr %18, align 4
  %20 = getelementptr inbounds nuw i8, ptr %15, i64 8
  store ptr %0, ptr %20, align 8, !tbaa !10
  %21 = getelementptr inbounds nuw i8, ptr %15, i64 16
  store ptr %2, ptr %21, align 8, !tbaa !10
  %22 = getelementptr inbounds nuw i8, ptr %15, i64 24
  store ptr %3, ptr %22, align 8, !tbaa !10
  %23 = getelementptr inbounds nuw i8, ptr %15, i64 32
  store ptr %4, ptr %23, align 8, !tbaa !10
  %24 = getelementptr inbounds nuw i8, ptr %15, i64 40
  store ptr %5, ptr %24, align 8, !tbaa !10
  %25 = getelementptr inbounds nuw i8, ptr %15, i64 48
  store ptr %6, ptr %25, align 8, !tbaa !10
  %26 = getelementptr inbounds nuw i8, ptr %15, i64 56
  store ptr %7, ptr %26, align 8, !tbaa !10
  store i8 %1, ptr %19, align 1, !tbaa !17
  tail call void @lean_inc_heartbeat() #5
  %27 = tail call noalias ptr @mi_malloc_small(i64 noundef 24) #5
  %28 = icmp eq ptr %27, null
  br i1 %28, label %29, label %lean_alloc_ctor.exit20

29:                                               ; preds = %lean_alloc_ctor.exit
  tail call void @lean_internal_panic_out_of_memory() #6
  unreachable

lean_alloc_ctor.exit20:                           ; preds = %lean_alloc_ctor.exit
  %30 = getelementptr inbounds nuw i8, ptr %27, i64 4
  store i32 1, ptr %27, align 4, !tbaa !4
  store i32 131096, ptr %30, align 4
  %31 = getelementptr inbounds nuw i8, ptr %27, i64 8
  store ptr %15, ptr %31, align 8, !tbaa !10
  %32 = getelementptr inbounds nuw i8, ptr %27, i64 16
  store ptr %13, ptr %32, align 8, !tbaa !10
  ret ptr %27
}